; Function Attrs: mustprogress uwtable
define dso_local noundef ptr @_ZN4Luau19EqSatSimplification21findSubtractableClassERKNS_5EqSat6EGraphINS1_8LanguageIJNS0_4TNilENS0_8TBooleanENS0_7TNumberENS0_7TStringENS0_7TThreadENS0_12TTopFunctionENS0_9TTopTableENS0_9TTopClassENS0_7TBufferENS0_7TOpaqueENS0_8SBooleanENS0_7SStringENS0_9TFunctionENS0_6TTableENS0_14TImportedTableENS0_6TClassENS0_4TAnyENS0_6TErrorENS0_8TUnknownENS0_6TNeverENS0_5UnionENS0_12IntersectionENS0_8NegationENS0_8TTypeFunENS0_7InvalidENS0_9TNoRefineENS0_6TBoundEEEENS0_8SimplifyEEENS1_2IdE(ptr noundef nonnull align 8 dereferenceable(192) %0, i32 %1) local_unnamed_addr #5 personality ptr @__gxx_personality_v0 {
  %3 = alloca %"class.std::unordered_set", align 8
  call void @llvm.lifetime.start.p0(i64 56, ptr nonnull %3) #37
  %4 = getelementptr inbounds nuw i8, ptr %3, i64 48
  store ptr %4, ptr %3, align 8, !tbaa !196
  %5 = getelementptr inbounds nuw i8, ptr %3, i64 8
  store i64 1, ptr %5, align 8, !tbaa !198
  %6 = getelementptr inbounds nuw i8, ptr %3, i64 16
  %7 = getelementptr inbounds nuw i8, ptr %3, i64 32
  call void @llvm.memset.p0.i64(ptr noundef nonnull align 8 dereferenceable(16) %6, i8 0, i64 16, i1 false)
  store float 1.000000e+00, ptr %7, align 8, !tbaa !195
  %8 = getelementptr inbounds nuw i8, ptr %3, i64 40
  call void @llvm.memset.p0.i64(ptr noundef nonnull align 8 dereferenceable(16) %8, i8 0, i64 16, i1 false)
  %9 = invoke noundef ptr @_ZN4Luau19EqSatSimplification21findSubtractableClassERKNS_5EqSat6EGraphINS1_8LanguageIJNS0_4TNilENS0_8TBooleanENS0_7TNumberENS0_7TStringENS0_7TThreadENS0_12TTopFunctionENS0_9TTopTableENS0_9TTopClassENS0_7TBufferENS0_7TOpaqueENS0_8SBooleanENS0_7SStringENS0_9TFunctionENS0_6TTableENS0_14TImportedTableENS0_6TClassENS0_4TAnyENS0_6TErrorENS0_8TUnknownENS0_6TNeverENS0_5UnionENS0_12IntersectionENS0_8NegationENS0_8TTypeFunENS0_7InvalidENS0_9TNoRefineENS0_6TBoundEEEENS0_8SimplifyEEERSt13unordered_setINS1_2IdESt4hashIS11_ESt8equal_toIS11_ESaIS11_EES11_(ptr noundef nonnull align 8 dereferenceable(192) %0, ptr noundef nonnull align 8 dereferenceable(56) %3, i32 %1)
          to label %10 unwind label %21

10:                                               ; preds = %2
  %11 = load ptr, ptr %6, align 8, !tbaa !199
  %.not5.i.i.i.i = icmp eq ptr %11, null
  br i1 %.not5.i.i.i.i, label %_ZNSt10_HashtableIN4Luau5EqSat2IdES2_SaIS2_ENSt8__detail9_IdentityESt8equal_toIS2_ESt4hashIS2_ENS4_18_Mod_range_hashingENS4_20_Default_ranged_hashENS4_20_Prime_rehash_policyENS4_17_Hashtable_traitsILb1ELb1ELb1EEEE5clearEv.exit.i.i, label %.lr.ph.i.i.i.i

.lr.ph.i.i.i.i:                                   ; preds = %10, %.lr.ph.i.i.i.i
  %.06.i.i.i.i = phi ptr [ %12, %.lr.ph.i.i.i.i ], [ %11, %10 ]
  %12 = load ptr, ptr %.06.i.i.i.i, align 8, !tbaa !105
  call void @_ZdlPvm(ptr noundef nonnull %.06.i.i.i.i, i64 noundef 24) #36
  %.not.i.i.i.i = icmp eq ptr %12, null
  br i1 %.not.i.i.i.i, label %_ZNSt10_HashtableIN4Luau5EqSat2IdES2_SaIS2_ENSt8__detail9_IdentityESt8equal_toIS2_ESt4hashIS2_ENS4_18_Mod_range_hashingENS4_20_Default_ranged_hashENS4_20_Prime_rehash_policyENS4_17_Hashtable_traitsILb1ELb1ELb1EEEE5clearEv.exit.i.i, label %.lr.ph.i.i.i.i, !llvm.loop !223

_ZNSt10_HashtableIN4Luau5EqSat2IdES2_SaIS2_ENSt8__detail9_IdentityESt8equal_toIS2_ESt4hashIS2_ENS4_18_Mod_range_hashingENS4_20_Default_ranged_hashENS4_20_Prime_rehash_policyENS4_17_Hashtable_traitsILb1ELb1ELb1EEEE5clearEv.exit.i.i: ; preds = %.lr.ph.i.i.i.i, %10
  %13 = load ptr, ptr %3, align 8, !tbaa !196
  %14 = load i64, ptr %5, align 8, !tbaa !198
  %15 = shl i64 %14, 3
  call void @llvm.memset.p0.i64(ptr align 8 %13, i8 0, i64 %15, i1 false)
  call void @llvm.memset.p0.i64(ptr noundef nonnull align 8 dereferenceable(16) %6, i8 0, i64 16, i1 false)
  %16 = load ptr, ptr %3, align 8, !tbaa !196
  %17 = icmp eq ptr %16, %4
  br i1 %17, label %_ZNSt13unordered_setIN4Luau5EqSat2IdESt4hashIS2_ESt8equal_toIS2_ESaIS2_EED2Ev.exit, label %18

18:                                               ; preds = %_ZNSt10_HashtableIN4Luau5EqSat2IdES2_SaIS2_ENSt8__detail9_IdentityESt8equal_toIS2_ESt4hashIS2_ENS4_18_Mod_range_hashingENS4_20_Default_ranged_hashENS4_20_Prime_rehash_policyENS4_17_Hashtable_traitsILb1ELb1ELb1EEEE5clearEv.exit.i.i
  %19 = load i64, ptr %5, align 8, !tbaa !198
  %20 = shl i64 %19, 3
  call void @_ZdlPvm(ptr noundef %16, i64 noundef %20) #36
  br label %_ZNSt13unordered_setIN4Luau5EqSat2IdESt4hashIS2_ESt8equal_toIS2_ESaIS2_EED2Ev.exit

_ZNSt13unordered_setIN4Luau5EqSat2IdESt4hashIS2_ESt8equal_toIS2_ESaIS2_EED2Ev.exit: ; preds = %_ZNSt10_HashtableIN4Luau5EqSat2IdES2_SaIS2_ENSt8__detail9_IdentityESt8equal_toIS2_ESt4hashIS2_ENS4_18_Mod_range_hashingENS4_20_Default_ranged_hashENS4_20_Prime_rehash_policyENS4_17_Hashtable_traitsILb1ELb1ELb1EEEE5clearEv.exit.i.i, %18
  call void @llvm.lifetime.end.p0(i64 56, ptr nonnull %3) #37
  ret ptr %9

21:                                               ; preds = %2
  %22 = landingpad { ptr, i32 }
          cleanup
  call void @_ZNSt13unordered_setIN4Luau5EqSat2IdESt4hashIS2_ESt8equal_toIS2_ESaIS2_EED2Ev(ptr noundef nonnull align 8 dereferenceable(56) %3) #37
  call void @llvm.lifetime.end.p0(i64 56, ptr nonnull %3) #37
  resume { ptr, i32 } %22
}